(ideluge.core.torrentmanager
TorrentManagerState
p1
(dp2
S'torrents'
p3
(lp4
(ideluge.core.torrentmanager
TorrentState
p5
(dp6
S'max_download_speed'
p7
F-1
sS'move_completed_path'
p8
S'/Users/Roambot/Downloads'
p9
sS'paused'
p10
I00
sS'max_upload_slots'
p11
I-1
sS'prioritize_first_last'
p12
I00
sS'max_connections'
p13
I-1
sS'compact'
p14
I00
sS'queue'
p15
I0
sS'file_priorities'
p16
(lp17
I1
asS'filename'
p18
S'checkMyTorrentIp.png.torrent'
p19
sS'max_upload_speed'
p20
F-1
sS'save_path'
p21
S'/Users/Roambot/Downloads'
p22
sS'time_added'
p23
F1459915012.712261
sS'total_uploaded'
p24
L0L
sS'torrent_id'
p25
S'2fa71a2dbb7d53a39373a9c4e2c9d89aaa7a6db1'
p26
sS'auto_managed'
p27
I01
sS'stop_at_ratio'
p28
I00
sS'move_completed'
p29
I00
sS'trackers'
p30
(lp31
(dp32
S'send_stats'
p33
I01
sS'fails'
p34
I0
sS'verified'
p35
I00
sS'url'
p36
S'http://checkmytorrentip.net/torrentip/announce.php'
p37
sS'fail_limit'
p38
I0
sS'complete_sent'
p39
I00
sS'source'
p40
I1
sS'start_sent'
p41
I00
sS'tier'
p42
I0
sS'updating'
p43
I00
sasS'magnet'
p44
NsS'remove_at_ratio'
p45
I00
sS'stop_ratio'
p46
F2
sS'is_finished'
p47
I00
sba(ideluge.core.torrentmanager
TorrentState
p48
(dp49
g7
F-1
sg8
S'/Users/Roambot/Downloads'
p50
sg10
I00
sg11
I-1
sg12
I00
sg13
I-1
sg14
I00
sg15
I-1
sg16
(lp51
I1
aI1
aI1
aI1
aI1
aI1
aI1
aI1
aI1
aI1
aI1
aI1
asg18
S'af600ceee7aeea2629f6e07b9257a99ff8c2ddef'
p52
sg20
F-1
sg21
S'/Users/Roambot/Downloads'
p53
sg23
F1469842806.8298359
sg24
L0L
sg25
S'af600ceee7aeea2629f6e07b9257a99ff8c2ddef'
p54
sg27
I01
sg28
I00
sg29
I00
sg30
(lp55
(dp56
S'send_stats'
p57
I01
sS'fails'
p58
I0
sS'verified'
p59
I00
sS'url'
p60
S'udp://tracker.leechers-paradise.org:6969'
p61
sS'fail_limit'
p62
I0
sS'complete_sent'
p63
I00
sS'source'
p64
I4
sS'start_sent'
p65
I00
sS'tier'
p66
I0
sS'updating'
p67
I00
sa(dp68
S'send_stats'
p69
I01
sS'fails'
p70
I0
sS'verified'
p71
I00
sS'url'
p72
S'udp://zer0day.ch:1337'
p73
sS'fail_limit'
p74
I0
sS'complete_sent'
p75
I00
sS'source'
p76
I4
sS'start_sent'
p77
I00
sS'tier'
p78
I0
sS'updating'
p79
I00
sa(dp80
S'send_stats'
p81
I01
sS'fails'
p82
I0
sS'verified'
p83
I00
sS'url'
p84
S'udp://open.demonii.com:1337'
p85
sS'fail_limit'
p86
I0
sS'complete_sent'
p87
I00
sS'source'
p88
I4
sS'start_sent'
p89
I00
sS'tier'
p90
I0
sS'updating'
p91
I00
sa(dp92
S'send_stats'
p93
I01
sS'fails'
p94
I0
sS'verified'
p95
I00
sS'url'
p96
S'udp://tracker.coppersurfer.tk:6969'
p97
sS'fail_limit'
p98
I0
sS'complete_sent'
p99
I00
sS'source'
p100
I4
sS'start_sent'
p101
I00
sS'tier'
p102
I0
sS'updating'
p103
I00
sa(dp104
S'send_stats'
p105
I01
sS'fails'
p106
I0
sS'verified'
p107
I00
sS'url'
p108
S'udp://exodus.desync.com:6969'
p109
sS'fail_limit'
p110
I0
sS'complete_sent'
p111
I00
sS'source'
p112
I4
sS'start_sent'
p113
I00
sS'tier'
p114
I0
sS'updating'
p115
I00
sasg44
Nsg45
I00
sg46
F2
sg47
I01
sba(ideluge.core.torrentmanager
TorrentState
p116
(dp117
g7
F-1
sg8
S'/Users/Roambot/Downloads'
p118
sg10
I00
sg11
I-1
sg12
I00
sg13
I-1
sg14
I00
sg15
I-1
sg16
(lp119
I1
aI1
aI1
aI1
aI1
aI1
aI1
aI1
aI1
aI1
aI1
aI1
aI1
aI1
aI1
aI1
aI1
aI1
aI1
aI1
aI1
aI1
aI1
aI1
aI1
aI1
aI1
aI1
aI1
aI1
aI1
aI1
aI1
aI1
aI1
aI1
aI1
aI1
aI1
aI1
aI1
aI1
aI1
aI1
aI1
aI1
aI1
aI1
aI1
aI1
aI1
aI1
aI1
aI1
aI1
aI1
aI1
aI1
aI1
aI1
aI1
aI1
aI1
aI1
aI1
aI1
aI1
aI1
aI1
aI1
aI1
aI1
aI1
aI1
asg18
S'7a832695a6704211c842f898db1bbb2a07413f08'
p120
sg20
F-1
sg21
S'/Users/Roambot/Downloads'
p121
sg23
F1469827932.290642
sg24
L75183746L
sg25
S'7a832695a6704211c842f898db1bbb2a07413f08'
p122
sg27
I01
sg28
I00
sg29
I00
sg30
(lp123
(dp124
S'send_stats'
p125
I01
sS'fails'
p126
I0
sS'verified'
p127
I00
sS'url'
p128
S'udp://tracker.leechers-paradise.org:6969'
p129
sS'fail_limit'
p130
I0
sS'complete_sent'
p131
I00
sS'source'
p132
I4
sS'start_sent'
p133
I00
sS'tier'
p134
I0
sS'updating'
p135
I00
sa(dp136
S'send_stats'
p137
I01
sS'fails'
p138
I0
sS'verified'
p139
I00
sS'url'
p140
S'udp://zer0day.ch:1337'
p141
sS'fail_limit'
p142
I0
sS'complete_sent'
p143
I00
sS'source'
p144
I4
sS'start_sent'
p145
I00
sS'tier'
p146
I0
sS'updating'
p147
I00
sa(dp148
S'send_stats'
p149
I01
sS'fails'
p150
I0
sS'verified'
p151
I00
sS'url'
p152
S'udp://open.demonii.com:1337'
p153
sS'fail_limit'
p154
I0
sS'complete_sent'
p155
I00
sS'source'
p156
I4
sS'start_sent'
p157
I00
sS'tier'
p158
I0
sS'updating'
p159
I00
sa(dp160
S'send_stats'
p161
I01
sS'fails'
p162
I0
sS'verified'
p163
I00
sS'url'
p164
S'udp://tracker.coppersurfer.tk:6969'
p165
sS'fail_limit'
p166
I0
sS'complete_sent'
p167
I00
sS'source'
p168
I4
sS'start_sent'
p169
I00
sS'tier'
p170
I0
sS'updating'
p171
I00
sa(dp172
S'send_stats'
p173
I01
sS'fails'
p174
I0
sS'verified'
p175
I00
sS'url'
p176
S'udp://exodus.desync.com:6969'
p177
sS'fail_limit'
p178
I0
sS'complete_sent'
p179
I00
sS'source'
p180
I4
sS'start_sent'
p181
I00
sS'tier'
p182
I0
sS'updating'
p183
I00
sasg44
Nsg45
I00
sg46
F2
sg47
I01
sba(ideluge.core.torrentmanager
TorrentState
p184
(dp185
g7
F-1
sg8
S'/Users/Roambot/Downloads'
p186
sg10
I00
sg11
I-1
sg12
I00
sg13
I-1
sg14
I00
sg15
I-1
sg16
(lp187
I1
aI1
asg18
S'4d7c2fe44c68dabf4597a28c18fa0a0bb5655d74'
p188
sg20
F-1
sg21
S'/Users/Roambot/Downloads'
p189
sg23
F1472175476.71492
sg24
L16431113L
sg25
S'4d7c2fe44c68dabf4597a28c18fa0a0bb5655d74'
p190
sg27
I01
sg28
I00
sg29
I00
sg30
(lp191
(dp192
S'send_stats'
p193
I01
sS'fails'
p194
I0
sS'verified'
p195
I00
sS'url'
p196
S'udp://tracker.leechers-paradise.org:6969'
p197
sS'fail_limit'
p198
I0
sS'complete_sent'
p199
I00
sS'source'
p200
I4
sS'start_sent'
p201
I00
sS'tier'
p202
I0
sS'updating'
p203
I00
sa(dp204
S'send_stats'
p205
I01
sS'fails'
p206
I0
sS'verified'
p207
I00
sS'url'
p208
S'udp://zer0day.ch:1337'
p209
sS'fail_limit'
p210
I0
sS'complete_sent'
p211
I00
sS'source'
p212
I4
sS'start_sent'
p213
I00
sS'tier'
p214
I0
sS'updating'
p215
I00
sa(dp216
S'send_stats'
p217
I01
sS'fails'
p218
I0
sS'verified'
p219
I00
sS'url'
p220
S'udp://open.demonii.com:1337'
p221
sS'fail_limit'
p222
I0
sS'complete_sent'
p223
I00
sS'source'
p224
I4
sS'start_sent'
p225
I00
sS'tier'
p226
I0
sS'updating'
p227
I00
sa(dp228
S'send_stats'
p229
I01
sS'fails'
p230
I0
sS'verified'
p231
I00
sS'url'
p232
S'udp://tracker.coppersurfer.tk:6969'
p233
sS'fail_limit'
p234
I0
sS'complete_sent'
p235
I00
sS'source'
p236
I4
sS'start_sent'
p237
I00
sS'tier'
p238
I0
sS'updating'
p239
I00
sa(dp240
S'send_stats'
p241
I01
sS'fails'
p242
I0
sS'verified'
p243
I00
sS'url'
p244
S'udp://exodus.desync.com:6969'
p245
sS'fail_limit'
p246
I0
sS'complete_sent'
p247
I00
sS'source'
p248
I4
sS'start_sent'
p249
I00
sS'tier'
p250
I0
sS'updating'
p251
I00
sasg44
Nsg45
I00
sg46
F2
sg47
I01
sba(ideluge.core.torrentmanager
TorrentState
p252
(dp253
g7
F-1
sg8
S'/Users/Roambot/Downloads'
p254
sg10
I00
sg11
I-1
sg12
I00
sg13
I-1
sg14
I00
sg15
I-1
sg16
(lp255
I1
aI1
asg18
S'65959583d7d7f90b98eb2464fa3f8e62147781b8'
p256
sg20
F-1
sg21
S'/Users/Roambot/Downloads'
p257
sg23
F1476577093.0359671
sg24
L255834152L
sg25
g256
sg27
I01
sg28
I00
sg29
I00
sg30
(lp258
(dp259
S'send_stats'
p260
I01
sS'fails'
p261
I0
sS'verified'
p262
I00
sS'url'
p263
S'udp://tracker.leechers-paradise.org:6969'
p264
sS'fail_limit'
p265
I0
sS'complete_sent'
p266
I00
sS'source'
p267
I4
sS'start_sent'
p268
I00
sS'tier'
p269
I0
sS'updating'
p270
I00
sa(dp271
S'send_stats'
p272
I01
sS'fails'
p273
I0
sS'verified'
p274
I00
sS'url'
p275
S'udp://zer0day.ch:1337'
p276
sS'fail_limit'
p277
I0
sS'complete_sent'
p278
I00
sS'source'
p279
I4
sS'start_sent'
p280
I00
sS'tier'
p281
I0
sS'updating'
p282
I00
sa(dp283
S'send_stats'
p284
I01
sS'fails'
p285
I0
sS'verified'
p286
I00
sS'url'
p287
S'udp://open.demonii.com:1337'
p288
sS'fail_limit'
p289
I0
sS'complete_sent'
p290
I00
sS'source'
p291
I4
sS'start_sent'
p292
I00
sS'tier'
p293
I0
sS'updating'
p294
I00
sa(dp295
S'send_stats'
p296
I01
sS'fails'
p297
I0
sS'verified'
p298
I00
sS'url'
p299
S'udp://tracker.coppersurfer.tk:6969'
p300
sS'fail_limit'
p301
I0
sS'complete_sent'
p302
I00
sS'source'
p303
I4
sS'start_sent'
p304
I00
sS'tier'
p305
I0
sS'updating'
p306
I00
sa(dp307
S'send_stats'
p308
I01
sS'fails'
p309
I0
sS'verified'
p310
I00
sS'url'
p311
S'udp://exodus.desync.com:6969'
p312
sS'fail_limit'
p313
I0
sS'complete_sent'
p314
I00
sS'source'
p315
I4
sS'start_sent'
p316
I00
sS'tier'
p317
I0
sS'updating'
p318
I00
sasg44
S'magnet:?xt=urn:btih:65959583d7d7f90b98eb2464fa3f8e62147781b8&dn=Star+Trek+Beyond+2016+1080p+WEB-DL+x264+AC3-JYK&tr=udp%3A%2F%2Ftracker.leechers-paradise.org%3A6969&tr=udp%3A%2F%2Fzer0day.ch%3A1337&tr=udp%3A%2F%2Fopen.demonii.com%3A1337&tr=udp%3A%2F%2Ftracker.coppersurfer.tk%3A6969&tr=udp%3A%2F%2Fexodus.desync.com%3A6969'
p319
sg45
I00
sg46
F2
sg47
I01
sba(ideluge.core.torrentmanager
TorrentState
p320
(dp321
g7
F-1
sg8
S'/Users/Roambot/Downloads'
p322
sg10
I00
sg11
I-1
sg12
I00
sg13
I-1
sg14
I00
sg15
I-1
sg16
(lp323
I1
aI1
aI1
asg18
S'd764c3871142105d0d4d8d00ece1e8b3e712994e'
p324
sg20
F-1
sg21
S'/Users/Roambot/Downloads'
p325
sg23
F1476559473.9824021
sg24
L70036205L
sg25
S'd764c3871142105d0d4d8d00ece1e8b3e712994e'
p326
sg27
I01
sg28
I00
sg29
I00
sg30
(lp327
(dp328
S'send_stats'
p329
I01
sS'fails'
p330
I0
sS'verified'
p331
I00
sS'url'
p332
S'udp://tracker.leechers-paradise.org:6969'
p333
sS'fail_limit'
p334
I0
sS'complete_sent'
p335
I00
sS'source'
p336
I4
sS'start_sent'
p337
I00
sS'tier'
p338
I0
sS'updating'
p339
I00
sa(dp340
S'send_stats'
p341
I01
sS'fails'
p342
I0
sS'verified'
p343
I00
sS'url'
p344
S'udp://zer0day.ch:1337'
p345
sS'fail_limit'
p346
I0
sS'complete_sent'
p347
I00
sS'source'
p348
I4
sS'start_sent'
p349
I00
sS'tier'
p350
I0
sS'updating'
p351
I00
sa(dp352
S'send_stats'
p353
I01
sS'fails'
p354
I0
sS'verified'
p355
I00
sS'url'
p356
S'udp://open.demonii.com:1337'
p357
sS'fail_limit'
p358
I0
sS'complete_sent'
p359
I00
sS'source'
p360
I4
sS'start_sent'
p361
I00
sS'tier'
p362
I0
sS'updating'
p363
I00
sa(dp364
S'send_stats'
p365
I01
sS'fails'
p366
I0
sS'verified'
p367
I00
sS'url'
p368
S'udp://tracker.coppersurfer.tk:6969'
p369
sS'fail_limit'
p370
I0
sS'complete_sent'
p371
I00
sS'source'
p372
I4
sS'start_sent'
p373
I00
sS'tier'
p374
I0
sS'updating'
p375
I00
sa(dp376
S'send_stats'
p377
I01
sS'fails'
p378
I0
sS'verified'
p379
I00
sS'url'
p380
S'udp://exodus.desync.com:6969'
p381
sS'fail_limit'
p382
I0
sS'complete_sent'
p383
I00
sS'source'
p384
I4
sS'start_sent'
p385
I00
sS'tier'
p386
I0
sS'updating'
p387
I00
sasg44
Nsg45
I00
sg46
F2
sg47
I01
sba(ideluge.core.torrentmanager
TorrentState
p388
(dp389
g7
F-1
sg8
S'/Users/Roambot/Downloads'
p390
sg10
I00
sg11
I-1
sg12
I00
sg13
I-1
sg14
I00
sg15
I-1
sg16
(lp391
I1
aI1
aI1
aI1
aI1
aI1
aI1
aI1
aI1
aI1
aI1
aI1
aI1
aI1
aI1
aI1
aI1
aI1
aI1
aI1
aI1
aI1
aI1
asg18
S'7d61bf772c289cafa182579ba5061481ef7577bc'
p392
sg20
F-1
sg21
S'/Users/Roambot/Downloads'
p393
sg23
F1469822101.292021
sg24
L0L
sg25
S'7d61bf772c289cafa182579ba5061481ef7577bc'
p394
sg27
I01
sg28
I00
sg29
I00
sg30
(lp395
(dp396
S'send_stats'
p397
I01
sS'fails'
p398
I0
sS'verified'
p399
I00
sS'url'
p400
S'udp://tracker.leechers-paradise.org:6969'
p401
sS'fail_limit'
p402
I0
sS'complete_sent'
p403
I00
sS'source'
p404
I4
sS'start_sent'
p405
I00
sS'tier'
p406
I0
sS'updating'
p407
I00
sa(dp408
S'send_stats'
p409
I01
sS'fails'
p410
I0
sS'verified'
p411
I00
sS'url'
p412
S'udp://zer0day.ch:1337'
p413
sS'fail_limit'
p414
I0
sS'complete_sent'
p415
I00
sS'source'
p416
I4
sS'start_sent'
p417
I00
sS'tier'
p418
I0
sS'updating'
p419
I00
sa(dp420
S'send_stats'
p421
I01
sS'fails'
p422
I0
sS'verified'
p423
I00
sS'url'
p424
S'udp://open.demonii.com:1337'
p425
sS'fail_limit'
p426
I0
sS'complete_sent'
p427
I00
sS'source'
p428
I4
sS'start_sent'
p429
I00
sS'tier'
p430
I0
sS'updating'
p431
I00
sa(dp432
S'send_stats'
p433
I01
sS'fails'
p434
I0
sS'verified'
p435
I00
sS'url'
p436
S'udp://tracker.coppersurfer.tk:6969'
p437
sS'fail_limit'
p438
I0
sS'complete_sent'
p439
I00
sS'source'
p440
I4
sS'start_sent'
p441
I00
sS'tier'
p442
I0
sS'updating'
p443
I00
sa(dp444
S'send_stats'
p445
I01
sS'fails'
p446
I0
sS'verified'
p447
I00
sS'url'
p448
S'udp://exodus.desync.com:6969'
p449
sS'fail_limit'
p450
I0
sS'complete_sent'
p451
I00
sS'source'
p452
I4
sS'start_sent'
p453
I00
sS'tier'
p454
I0
sS'updating'
p455
I00
sasg44
Nsg45
I00
sg46
F2
sg47
I01
sbasb.